target datalayout = "e-m:e-p270:32:32-p271:32:32-p272:64:64-i64:64-i128:128-f80:128-n8:16:32:64-S128"
target triple = "x86_64-pc-linux-gnu"

%struct.IDAMemRec = type { ptr, double, ptr, ptr, i32, double, double, ptr, i32, i32, ptr, ptr, i32, i32, i32, ptr, ptr, i32, i32, double, double, ptr, i32, i32, i32, i32, ptr, ptr, i32, ptr, ptr, ptr, i32, double, i32, i32, double, ptr, ptr, ptr, i32, ptr, ptr, i32, i32, i32, double, ptr, ptr, ptr, [6 x ptr], [6 x double], [6 x double], [6 x double], [6 x double], [6 x double], ptr, ptr, ptr, ptr, ptr, ptr, ptr, ptr, ptr, ptr, ptr, ptr, ptr, ptr, ptr, ptr, ptr, [6 x ptr], ptr, ptr, ptr, ptr, [6 x ptr], ptr, ptr, ptr, ptr, ptr, ptr, ptr, ptr, ptr, ptr, ptr, ptr, ptr, ptr, ptr, ptr, [6 x ptr], ptr, ptr, ptr, ptr, ptr, double, ptr, ptr, i32, i32, i32, i32, i32, i32, i32, i32, double, double, double, i32, double, i32, i32, i32, i32, i32, double, double, double, double, double, double, double, double, double, double, double, double, double, double, double, double, double, i32, i32, i32, i32, i64, double, double, double, double, double, double, double, double, double, i64, i64, i64, i64, i64, i64, i64, i64, i64, i64, i64, i64, i64, i64, i64, i64, i64, i64, i64, i64, i64, i64, i64, i64, i64, i64, double, i32, i32, i32, i32, i32, i32, i32, i32, i32, i32, i32, i32, i32, ptr, i32, ptr, i32, ptr, i32, ptr, ptr, ptr, ptr, ptr, ptr, i32, i32, ptr, ptr, ptr, ptr, ptr, ptr, ptr, double, i32, i32, ptr, i32, ptr, ptr, double, double, double, ptr, ptr, ptr, double, double, i32, i32, i64, ptr, i32, ptr, [5 x double], ptr, ptr, i32, ptr, i32 }

@.str = private unnamed_addr constant [111 x i8] c"generated/home/dtcxzyw/WorkSpace/Projects/compilers/llvm-opt-benchmark/bench/sundials/sundials/src/idas/idas.c\00", align 1
@.str.3 = private unnamed_addr constant [24 x i8] c"ida_mem = NULL illegal.\00", align 1
@.str.20 = private unnamed_addr constant [52 x i8] c"Illegal attempt to call before calling IDASensInit.\00", align 1
@.str.22 = private unnamed_addr constant [19 x i8] c"rtolS < 0 illegal.\00", align 1
@.str.23 = private unnamed_addr constant [22 x i8] c"atolS = NULL illegal.\00", align 1
@.str.24 = private unnamed_addr constant [43 x i8] c"atolS has negative component(s) (illegal).\00", align 1
@__func__.IDASensSVtolerances = private unnamed_addr constant [20 x i8] c"IDASensSVtolerances\00", align 1

; Function Attrs: nounwind uwtable
define i32 @IDASensSVtolerances(ptr noundef %0, double noundef %1, ptr noundef %2) #0 {
  %4 = alloca i32, align 4
  %5 = alloca ptr, align 8
  %6 = alloca double, align 8
  %7 = alloca ptr, align 8
  %8 = alloca ptr, align 8
  %9 = alloca i32, align 4
  %10 = alloca i32, align 4
  %11 = alloca ptr, align 8
  %12 = alloca i32, align 4
  store ptr %0, ptr %5, align 8, !tbaa !126
  store double %1, ptr %6, align 8, !tbaa !123
  store ptr %2, ptr %7, align 8, !tbaa !125
  call void @llvm.lifetime.start.p0(i64 8, ptr %8) #10
  call void @llvm.lifetime.start.p0(i64 4, ptr %9) #10
  call void @llvm.lifetime.start.p0(i64 4, ptr %10) #10
  call void @llvm.lifetime.start.p0(i64 8, ptr %11) #10
  %13 = load ptr, ptr %5, align 8, !tbaa !126
  %14 = icmp eq ptr %13, null
  br i1 %14, label %15, label %16

15:                                               ; preds = %3
  call void (ptr, i32, i32, ptr, ptr, ptr, ...) @IDAProcessError(ptr noundef null, i32 noundef -20, i32 noundef 1756, ptr noundef @__func__.IDASensSVtolerances, ptr noundef @.str, ptr noundef @.str.3)
  store i32 -20, ptr %4, align 4
  store i32 1, ptr %12, align 4
  br label %172

16:                                               ; preds = %3
  %17 = load ptr, ptr %5, align 8, !tbaa !126
  store ptr %17, ptr %8, align 8, !tbaa !8
  %18 = load ptr, ptr %8, align 8, !tbaa !8
  %19 = getelementptr inbounds nuw %struct.IDAMemRec, ptr %18, i32 0, i32 189
  %20 = load i32, ptr %19, align 4, !tbaa !95
  %21 = icmp eq i32 %20, 0
  br i1 %21, label %22, label %24

22:                                               ; preds = %16
  %23 = load ptr, ptr %8, align 8, !tbaa !8
  call void (ptr, i32, i32, ptr, ptr, ptr, ...) @IDAProcessError(ptr noundef %23, i32 noundef -40, i32 noundef 1765, ptr noundef @__func__.IDASensSVtolerances, ptr noundef @.str, ptr noundef @.str.20)
  store i32 -40, ptr %4, align 4
  store i32 1, ptr %12, align 4
  br label %172

24:                                               ; preds = %16
  %25 = load double, ptr %6, align 8, !tbaa !123
  %26 = fcmp olt double %25, 0.000000e+00
  br i1 %26, label %27, label %29

27:                                               ; preds = %24
  %28 = load ptr, ptr %8, align 8, !tbaa !8
  call void (ptr, i32, i32, ptr, ptr, ptr, ...) @IDAProcessError(ptr noundef %28, i32 noundef -22, i32 noundef 1774, ptr noundef @__func__.IDASensSVtolerances, ptr noundef @.str, ptr noundef @.str.22)
  store i32 -22, ptr %4, align 4
  store i32 1, ptr %12, align 4
  br label %172

29:                                               ; preds = %24
  %30 = load ptr, ptr %7, align 8, !tbaa !125
  %31 = icmp eq ptr %30, null
  br i1 %31, label %32, label %34

32:                                               ; preds = %29
  %33 = load ptr, ptr %8, align 8, !tbaa !8
  call void (ptr, i32, i32, ptr, ptr, ptr, ...) @IDAProcessError(ptr noundef %33, i32 noundef -22, i32 noundef 1781, ptr noundef @__func__.IDASensSVtolerances, ptr noundef @.str, ptr noundef @.str.23)
  store i32 -22, ptr %4, align 4
  store i32 1, ptr %12, align 4
  br label %172

34:                                               ; preds = %29
  %35 = load ptr, ptr %8, align 8, !tbaa !8
  %36 = getelementptr inbounds nuw %struct.IDAMemRec, ptr %35, i32 0, i32 24
  %37 = load i32, ptr %36, align 8, !tbaa !203
  %38 = sext i32 %37 to i64
  %39 = mul i64 %38, 8
  %40 = call noalias ptr @malloc(i64 noundef %39) #11
  store ptr %40, ptr %11, align 8, !tbaa !223
  store i32 0, ptr %9, align 4, !tbaa !114
  br label %41

41:                                               ; preds = %68, %34
  %42 = load i32, ptr %9, align 4, !tbaa !114
  %43 = load ptr, ptr %8, align 8, !tbaa !8
  %44 = getelementptr inbounds nuw %struct.IDAMemRec, ptr %43, i32 0, i32 24
  %45 = load i32, ptr %44, align 8, !tbaa !203
  %46 = icmp slt i32 %42, %45
  br i1 %46, label %47, label %71

47:                                               ; preds = %41
  %48 = load ptr, ptr %7, align 8, !tbaa !125
  %49 = load i32, ptr %9, align 4, !tbaa !114
  %50 = sext i32 %49 to i64
  %51 = getelementptr inbounds ptr, ptr %48, i64 %50
  %52 = load ptr, ptr %51, align 8, !tbaa !124
  %53 = call double @N_VMin(ptr noundef %52)
  %54 = load ptr, ptr %11, align 8, !tbaa !223
  %55 = load i32, ptr %9, align 4, !tbaa !114
  %56 = sext i32 %55 to i64
  %57 = getelementptr inbounds double, ptr %54, i64 %56
  store double %53, ptr %57, align 8, !tbaa !123
  %58 = load ptr, ptr %11, align 8, !tbaa !223
  %59 = load i32, ptr %9, align 4, !tbaa !114
  %60 = sext i32 %59 to i64
  %61 = getelementptr inbounds double, ptr %58, i64 %60
  %62 = load double, ptr %61, align 8, !tbaa !123
  %63 = fcmp olt double %62, 0.000000e+00
  br i1 %63, label %64, label %67

64:                                               ; preds = %47
  %65 = load ptr, ptr %8, align 8, !tbaa !8
  call void (ptr, i32, i32, ptr, ptr, ptr, ...) @IDAProcessError(ptr noundef %65, i32 noundef -22, i32 noundef 1792, ptr noundef @__func__.IDASensSVtolerances, ptr noundef @.str, ptr noundef @.str.24)
  %66 = load ptr, ptr %11, align 8, !tbaa !223
  call void @free(ptr noundef %66) #10
  store i32 -22, ptr %4, align 4
  store i32 1, ptr %12, align 4
  br label %172

67:                                               ; preds = %47
  br label %68

68:                                               ; preds = %67
  %69 = load i32, ptr %9, align 4, !tbaa !114
  %70 = add nsw i32 %69, 1
  store i32 %70, ptr %9, align 4, !tbaa !114
  br label %41

71:                                               ; preds = %41
  %72 = load ptr, ptr %8, align 8, !tbaa !8
  %73 = getelementptr inbounds nuw %struct.IDAMemRec, ptr %72, i32 0, i32 35
  store i32 2, ptr %73, align 4, !tbaa !73
  %74 = load double, ptr %6, align 8, !tbaa !123
  %75 = load ptr, ptr %8, align 8, !tbaa !8
  %76 = getelementptr inbounds nuw %struct.IDAMemRec, ptr %75, i32 0, i32 36
  store double %74, ptr %76, align 8, !tbaa !224
  %77 = load ptr, ptr %8, align 8, !tbaa !8
  %78 = getelementptr inbounds nuw %struct.IDAMemRec, ptr %77, i32 0, i32 187
  %79 = load i32, ptr %78, align 4, !tbaa !93
  %80 = icmp eq i32 0, %79
  br i1 %80, label %81, label %125

81:                                               ; preds = %71
  %82 = load ptr, ptr %8, align 8, !tbaa !8
  %83 = getelementptr inbounds nuw %struct.IDAMemRec, ptr %82, i32 0, i32 24
  %84 = load i32, ptr %83, align 8, !tbaa !203
  %85 = load ptr, ptr %8, align 8, !tbaa !8
  %86 = getelementptr inbounds nuw %struct.IDAMemRec, ptr %85, i32 0, i32 66
  %87 = load ptr, ptr %86, align 8, !tbaa !186
  %88 = call ptr @N_VCloneVectorArray(i32 noundef %84, ptr noundef %87)
  %89 = load ptr, ptr %8, align 8, !tbaa !8
  %90 = getelementptr inbounds nuw %struct.IDAMemRec, ptr %89, i32 0, i32 38
  store ptr %88, ptr %90, align 8, !tbaa !221
  %91 = load ptr, ptr %8, align 8, !tbaa !8
  %92 = getelementptr inbounds nuw %struct.IDAMemRec, ptr %91, i32 0, i32 24
  %93 = load i32, ptr %92, align 8, !tbaa !203
  %94 = sext i32 %93 to i64
  %95 = mul i64 %94, 4
  %96 = call noalias ptr @malloc(i64 noundef %95) #11
  %97 = load ptr, ptr %8, align 8, !tbaa !8
  %98 = getelementptr inbounds nuw %struct.IDAMemRec, ptr %97, i32 0, i32 39
  store ptr %96, ptr %98, align 8, !tbaa !74
  %99 = load ptr, ptr %8, align 8, !tbaa !8
  %100 = getelementptr inbounds nuw %struct.IDAMemRec, ptr %99, i32 0, i32 24
  %101 = load i32, ptr %100, align 8, !tbaa !203
  %102 = sext i32 %101 to i64
  %103 = load ptr, ptr %8, align 8, !tbaa !8
  %104 = getelementptr inbounds nuw %struct.IDAMemRec, ptr %103, i32 0, i32 173
  %105 = load i64, ptr %104, align 8, !tbaa !132
  %106 = mul nsw i64 %102, %105
  %107 = load ptr, ptr %8, align 8, !tbaa !8
  %108 = getelementptr inbounds nuw %struct.IDAMemRec, ptr %107, i32 0, i32 177
  %109 = load i64, ptr %108, align 8, !tbaa !85
  %110 = add nsw i64 %109, %106
  store i64 %110, ptr %108, align 8, !tbaa !85
  %111 = load ptr, ptr %8, align 8, !tbaa !8
  %112 = getelementptr inbounds nuw %struct.IDAMemRec, ptr %111, i32 0, i32 24
  %113 = load i32, ptr %112, align 8, !tbaa !203
  %114 = sext i32 %113 to i64
  %115 = load ptr, ptr %8, align 8, !tbaa !8
  %116 = getelementptr inbounds nuw %struct.IDAMemRec, ptr %115, i32 0, i32 174
  %117 = load i64, ptr %116, align 8, !tbaa !133
  %118 = mul nsw i64 %114, %117
  %119 = load ptr, ptr %8, align 8, !tbaa !8
  %120 = getelementptr inbounds nuw %struct.IDAMemRec, ptr %119, i32 0, i32 178
  %121 = load i64, ptr %120, align 8, !tbaa !86
  %122 = add nsw i64 %121, %118
  store i64 %122, ptr %120, align 8, !tbaa !86
  %123 = load ptr, ptr %8, align 8, !tbaa !8
  %124 = getelementptr inbounds nuw %struct.IDAMemRec, ptr %123, i32 0, i32 187
  store i32 1, ptr %124, align 4, !tbaa !93
  br label %125

125:                                              ; preds = %81, %71
  store i32 0, ptr %9, align 4, !tbaa !114
  br label %126

126:                                              ; preds = %152, %125
  %127 = load i32, ptr %9, align 4, !tbaa !114
  %128 = load ptr, ptr %8, align 8, !tbaa !8
  %129 = getelementptr inbounds nuw %struct.IDAMemRec, ptr %128, i32 0, i32 24
  %130 = load i32, ptr %129, align 8, !tbaa !203
  %131 = icmp slt i32 %127, %130
  br i1 %131, label %132, label %155

132:                                              ; preds = %126
  %133 = load ptr, ptr %8, align 8, !tbaa !8
  %134 = getelementptr inbounds nuw %struct.IDAMemRec, ptr %133, i32 0, i32 234
  %135 = load ptr, ptr %134, align 8, !tbaa !134
  %136 = load i32, ptr %9, align 4, !tbaa !114
  %137 = sext i32 %136 to i64
  %138 = getelementptr inbounds double, ptr %135, i64 %137
  store double 1.000000e+00, ptr %138, align 8, !tbaa !123
  %139 = load ptr, ptr %11, align 8, !tbaa !223
  %140 = load i32, ptr %9, align 4, !tbaa !114
  %141 = sext i32 %140 to i64
  %142 = getelementptr inbounds double, ptr %139, i64 %141
  %143 = load double, ptr %142, align 8, !tbaa !123
  %144 = fcmp oeq double %143, 0.000000e+00
  %145 = zext i1 %144 to i32
  %146 = load ptr, ptr %8, align 8, !tbaa !8
  %147 = getelementptr inbounds nuw %struct.IDAMemRec, ptr %146, i32 0, i32 39
  %148 = load ptr, ptr %147, align 8, !tbaa !74
  %149 = load i32, ptr %9, align 4, !tbaa !114
  %150 = sext i32 %149 to i64
  %151 = getelementptr inbounds i32, ptr %148, i64 %150
  store i32 %145, ptr %151, align 4, !tbaa !114
  br label %152

152:                                              ; preds = %132
  %153 = load i32, ptr %9, align 4, !tbaa !114
  %154 = add nsw i32 %153, 1
  store i32 %154, ptr %9, align 4, !tbaa !114
  br label %126

155:                                              ; preds = %126
  %156 = load ptr, ptr %11, align 8, !tbaa !223
  call void @free(ptr noundef %156) #10
  %157 = load ptr, ptr %8, align 8, !tbaa !8
  %158 = getelementptr inbounds nuw %struct.IDAMemRec, ptr %157, i32 0, i32 24
  %159 = load i32, ptr %158, align 8, !tbaa !203
  %160 = load ptr, ptr %8, align 8, !tbaa !8
  %161 = getelementptr inbounds nuw %struct.IDAMemRec, ptr %160, i32 0, i32 234
  %162 = load ptr, ptr %161, align 8, !tbaa !134
  %163 = load ptr, ptr %7, align 8, !tbaa !125
  %164 = load ptr, ptr %8, align 8, !tbaa !8
  %165 = getelementptr inbounds nuw %struct.IDAMemRec, ptr %164, i32 0, i32 38
  %166 = load ptr, ptr %165, align 8, !tbaa !221
  %167 = call i32 @N_VScaleVectorArray(i32 noundef %159, ptr noundef %162, ptr noundef %163, ptr noundef %166)
  store i32 %167, ptr %10, align 4, !tbaa !114
  %168 = load i32, ptr %10, align 4, !tbaa !114
  %169 = icmp ne i32 %168, 0
  br i1 %169, label %170, label %171

170:                                              ; preds = %155
  store i32 -28, ptr %4, align 4
  store i32 1, ptr %12, align 4
  br label %172

171:                                              ; preds = %155
  store i32 0, ptr %4, align 4
  store i32 1, ptr %12, align 4
  br label %172

172:                                              ; preds = %171, %170, %64, %32, %27, %22, %15
  call void @llvm.lifetime.end.p0(i64 8, ptr %11) #10
  call void @llvm.lifetime.end.p0(i64 4, ptr %10) #10
  call void @llvm.lifetime.end.p0(i64 4, ptr %9) #10
  call void @llvm.lifetime.end.p0(i64 8, ptr %8) #10
  %173 = load i32, ptr %4, align 4
  ret i32 %173
}