; Function Attrs: nounwind uwtable
define range(i32 -40, 1) i32 @IDASensSVtolerances(ptr noundef captures(address_is_null) %0, double noundef %1, ptr noundef %2) local_unnamed_addr #0 {
  %4 = icmp eq ptr %0, null
  br i1 %4, label %5, label %6

5:                                                ; preds = %3
  tail call void (ptr, i32, i32, ptr, ptr, ptr, ...) @IDAProcessError(ptr noundef null, i32 noundef -20, i32 noundef 1756, ptr noundef nonnull @__func__.IDASensSVtolerances, ptr noundef nonnull @.str, ptr noundef nonnull @.str.3)
  br label %81

6:                                                ; preds = %3
  %7 = getelementptr inbounds nuw i8, ptr %0, i64 1716
  %8 = load i32, ptr %7, align 4, !tbaa !185
  %9 = icmp eq i32 %8, 0
  br i1 %9, label %10, label %11

10:                                               ; preds = %6
  tail call void (ptr, i32, i32, ptr, ptr, ptr, ...) @IDAProcessError(ptr noundef nonnull %0, i32 noundef -40, i32 noundef 1765, ptr noundef nonnull @__func__.IDASensSVtolerances, ptr noundef nonnull @.str, ptr noundef nonnull @.str.20)
  br label %81

11:                                               ; preds = %6
  %12 = fcmp olt double %1, 0.000000e+00
  br i1 %12, label %13, label %14

13:                                               ; preds = %11
  tail call void (ptr, i32, i32, ptr, ptr, ptr, ...) @IDAProcessError(ptr noundef nonnull %0, i32 noundef -22, i32 noundef 1774, ptr noundef nonnull @__func__.IDASensSVtolerances, ptr noundef nonnull @.str, ptr noundef nonnull @.str.22)
  br label %81

14:                                               ; preds = %11
  %15 = icmp eq ptr %2, null
  br i1 %15, label %16, label %17

16:                                               ; preds = %14
  tail call void (ptr, i32, i32, ptr, ptr, ptr, ...) @IDAProcessError(ptr noundef nonnull %0, i32 noundef -22, i32 noundef 1781, ptr noundef nonnull @__func__.IDASensSVtolerances, ptr noundef nonnull @.str, ptr noundef nonnull @.str.23)
  br label %81

17:                                               ; preds = %14
  %18 = getelementptr inbounds nuw i8, ptr %0, i64 160
  %19 = load i32, ptr %18, align 8, !tbaa !167
  %20 = sext i32 %19 to i64
  %21 = shl nsw i64 %20, 3
  %22 = tail call noalias ptr @malloc(i64 noundef %21) #15
  %23 = icmp sgt i32 %19, 0
  br i1 %23, label %.lr.ph, label %._crit_edge

24:                                               ; preds = %.lr.ph
  %indvars.iv.next = add nuw nsw i64 %indvars.iv, 1
  %25 = load i32, ptr %18, align 8, !tbaa !167
  %26 = sext i32 %25 to i64
  %27 = icmp slt i64 %indvars.iv.next, %26
  br i1 %27, label %.lr.ph, label %._crit_edge

.lr.ph:                                           ; preds = %17, %24
  %indvars.iv = phi i64 [ %indvars.iv.next, %24 ], [ 0, %17 ]
  %28 = getelementptr inbounds nuw ptr, ptr %2, i64 %indvars.iv
  %29 = load ptr, ptr %28, align 8, !tbaa !83
  %30 = tail call double @N_VMin(ptr noundef %29) #14
  %31 = getelementptr inbounds nuw double, ptr %22, i64 %indvars.iv
  store double %30, ptr %31, align 8, !tbaa !87
  %32 = fcmp olt double %30, 0.000000e+00
  br i1 %32, label %33, label %24

33:                                               ; preds = %.lr.ph
  tail call void (ptr, i32, i32, ptr, ptr, ptr, ...) @IDAProcessError(ptr noundef nonnull %0, i32 noundef -22, i32 noundef 1792, ptr noundef nonnull @__func__.IDASensSVtolerances, ptr noundef nonnull @.str, ptr noundef nonnull @.str.24)
  tail call void @free(ptr noundef nonnull %22) #14
  br label %81

._crit_edge:                                      ; preds = %24, %17
  %.lcssa55 = phi i32 [ %19, %17 ], [ %25, %24 ]
  %34 = getelementptr inbounds nuw i8, ptr %0, i64 236
  store i32 2, ptr %34, align 4, !tbaa !52
  %35 = getelementptr inbounds nuw i8, ptr %0, i64 240
  store double %1, ptr %35, align 8, !tbaa !190
  %36 = getelementptr inbounds nuw i8, ptr %0, i64 1708
  %37 = load i32, ptr %36, align 4, !tbaa !186
  %38 = icmp eq i32 %37, 0
  br i1 %38, label %39, label %61

39:                                               ; preds = %._crit_edge
  %40 = getelementptr inbounds nuw i8, ptr %0, i64 712
  %41 = load ptr, ptr %40, align 8, !tbaa !119
  %42 = tail call ptr @N_VCloneVectorArray(i32 noundef %.lcssa55, ptr noundef %41) #14
  %43 = getelementptr inbounds nuw i8, ptr %0, i64 256
  store ptr %42, ptr %43, align 8, !tbaa !187
  %44 = load i32, ptr %18, align 8, !tbaa !167
  %45 = sext i32 %44 to i64
  %46 = shl nsw i64 %45, 2
  %47 = tail call noalias ptr @malloc(i64 noundef %46) #15
  %48 = getelementptr inbounds nuw i8, ptr %0, i64 264
  store ptr %47, ptr %48, align 8, !tbaa !53
  %49 = getelementptr inbounds nuw i8, ptr %0, i64 1624
  %50 = load i64, ptr %49, align 8, !tbaa !112
  %51 = mul nsw i64 %50, %45
  %52 = getelementptr inbounds nuw i8, ptr %0, i64 1656
  %53 = load i64, ptr %52, align 8, !tbaa !64
  %54 = add nsw i64 %53, %51
  store i64 %54, ptr %52, align 8, !tbaa !64
  %55 = getelementptr inbounds nuw i8, ptr %0, i64 1632
  %56 = load i64, ptr %55, align 8, !tbaa !113
  %57 = mul nsw i64 %56, %45
  %58 = getelementptr inbounds nuw i8, ptr %0, i64 1664
  %59 = load i64, ptr %58, align 8, !tbaa !65
  %60 = add nsw i64 %59, %57
  store i64 %60, ptr %58, align 8, !tbaa !65
  store i32 1, ptr %36, align 4, !tbaa !186
  br label %61

61:                                               ; preds = %39, %._crit_edge
  %62 = phi i32 [ %44, %39 ], [ %.lcssa55, %._crit_edge ]
  %63 = icmp sgt i32 %62, 0
  %64 = getelementptr inbounds nuw i8, ptr %0, i64 2040
  %65 = load ptr, ptr %64, align 8, !tbaa !122
  br i1 %63, label %.lr.ph60, label %._crit_edge61

.lr.ph60:                                         ; preds = %61
  %66 = getelementptr inbounds nuw i8, ptr %0, i64 264
  %67 = load ptr, ptr %66, align 8, !tbaa !53
  br label %68

68:                                               ; preds = %.lr.ph60, %68
  %indvars.iv66 = phi i64 [ 0, %.lr.ph60 ], [ %indvars.iv.next67, %68 ]
  %69 = getelementptr inbounds nuw double, ptr %65, i64 %indvars.iv66
  store double 1.000000e+00, ptr %69, align 8, !tbaa !87
  %70 = getelementptr inbounds nuw double, ptr %22, i64 %indvars.iv66
  %71 = load double, ptr %70, align 8, !tbaa !87
  %72 = fcmp oeq double %71, 0.000000e+00
  %73 = zext i1 %72 to i32
  %74 = getelementptr inbounds nuw i32, ptr %67, i64 %indvars.iv66
  store i32 %73, ptr %74, align 4, !tbaa !85
  %indvars.iv.next67 = add nuw nsw i64 %indvars.iv66, 1
  %75 = load i32, ptr %18, align 8, !tbaa !167
  %76 = sext i32 %75 to i64
  %77 = icmp slt i64 %indvars.iv.next67, %76
  br i1 %77, label %68, label %._crit_edge61

._crit_edge61:                                    ; preds = %68, %61
  %.lcssa = phi i32 [ %62, %61 ], [ %75, %68 ]
  tail call void @free(ptr noundef %22) #14
  %78 = getelementptr inbounds nuw i8, ptr %0, i64 256
  %79 = load ptr, ptr %78, align 8, !tbaa !187
  %80 = tail call i32 @N_VScaleVectorArray(i32 noundef %.lcssa, ptr noundef %65, ptr noundef nonnull %2, ptr noundef %79) #14
  %.not = icmp eq i32 %80, 0
  %. = select i1 %.not, i32 0, i32 -28
  br label %81

81:                                               ; preds = %._crit_edge61, %33, %16, %13, %10, %5
  %.0 = phi i32 [ -20, %5 ], [ -40, %10 ], [ -22, %13 ], [ -22, %16 ], [ -22, %33 ], [ %., %._crit_edge61 ]
  ret i32 %.0
}